target datalayout = "e-m:e-p270:32:32-p271:32:32-p272:64:64-i64:64-i128:128-f80:128-n8:16:32:64-S128"
target triple = "x86_64-pc-linux-gnu"

%"class.std::__shared_count" = type { ptr }
%"class.std::_Function_base" = type { %"union.std::_Any_data", ptr }
%"union.std::_Any_data" = type { %"union.std::_Nocopy_types" }
%"union.std::_Nocopy_types" = type { { i64, i64 } }
%"class.WasmEdge::Async" = type { %"class.std::shared_future", %"class.std::thread", %"class.std::function.275" }
%"class.std::shared_future" = type { %"class.std::__basic_future" }
%"class.std::__basic_future" = type { %"class.std::shared_ptr.272" }
%"class.std::shared_ptr.272" = type { %"class.std::__shared_ptr.273" }
%"class.std::__shared_ptr.273" = type { ptr, %"class.std::__shared_count" }
%"class.std::thread" = type { %"class.std::thread::id" }
%"class.std::thread::id" = type { i64 }
%"class.std::function.275" = type { %"class.std::_Function_base", ptr }
%struct.WasmEdge_Async = type { %"class.WasmEdge::Async" }
%"class.std::chrono::duration.622" = type { i64 }

; Function Attrs: mustprogress uwtable
define linkonce_odr hidden noundef zeroext i1 @_ZNK8WasmEdge5AsyncIN5cxx208expectedISt6vectorISt4pairINS_7VariantIJjimlfdonDv2_mDv2_lDv4_jDv4_iDv8_tDv8_sDv16_hDv16_aDv4_fDv2_dNS_10RefVariantENS_10StrVariantEEEENS_7ValTypeEESaISK_EENS_7ErrCodeEEEE7waitForIlSt5ratioILl1ELl1000EEEEbRKNSt6chrono8durationIT_T0_EE(ptr noundef nonnull align 8 dereferenceable(56) %0, ptr noundef nonnull align 8 dereferenceable(8) %1) #1 comdat align 2 {
  %3 = alloca ptr, align 8
  %4 = alloca ptr, align 8
  store ptr %0, ptr %3, align 8
  store ptr %1, ptr %4, align 8
  %5 = load ptr, ptr %3, align 8
  %6 = getelementptr inbounds %"class.WasmEdge::Async", ptr %5, i32 0, i32 0
  %7 = load ptr, ptr %4, align 8
  %8 = call noundef i32 @_ZNKSt14__basic_futureIN5cxx208expectedISt6vectorISt4pairIN8WasmEdge7VariantIJjimlfdonDv2_mDv2_lDv4_jDv4_iDv8_tDv8_sDv16_hDv16_aDv4_fDv2_dNS4_10RefVariantENS4_10StrVariantEEEENS4_7ValTypeEESaISK_EENS4_7ErrCodeEEEE8wait_forIlSt5ratioILl1ELl1000EEEESt13future_statusRKNSt6chrono8durationIT_T0_EE(ptr noundef nonnull align 8 dereferenceable(16) %6, ptr noundef nonnull align 8 dereferenceable(8) %7)
  %9 = icmp eq i32 %8, 0
  ret i1 %9
}

; Function Attrs: mustprogress nounwind uwtable
define linkonce_odr hidden void @_ZNSt6chrono8durationIlSt5ratioILl1ELl1000EEEC2ImvEERKT_(ptr noundef nonnull align 8 dereferenceable(8) %0, ptr noundef nonnull align 8 dereferenceable(8) %1) unnamed_addr #0 comdat align 2 {
  %3 = alloca ptr, align 8
  %4 = alloca ptr, align 8
  store ptr %0, ptr %3, align 8
  store ptr %1, ptr %4, align 8
  %5 = load ptr, ptr %3, align 8
  %6 = getelementptr inbounds %"class.std::chrono::duration.622", ptr %5, i32 0, i32 0
  %7 = load ptr, ptr %4, align 8
  %8 = load i64, ptr %7, align 8
  store i64 %8, ptr %6, align 8
  ret void
}

; Function Attrs: mustprogress uwtable
define zeroext i1 @WasmEdge_AsyncWaitFor(ptr noundef %0, i64 noundef %1) #1 {
  %3 = alloca i1, align 1
  %4 = alloca ptr, align 8
  %5 = alloca i64, align 8
  %6 = alloca %"class.std::chrono::duration.622", align 8
  store ptr %0, ptr %4, align 8
  store i64 %1, ptr %5, align 8
  %7 = load ptr, ptr %4, align 8
  %8 = icmp ne ptr %7, null
  br i1 %8, label %9, label %13

9:                                                ; preds = %2
  %10 = load ptr, ptr %4, align 8
  %11 = getelementptr inbounds %struct.WasmEdge_Async, ptr %10, i32 0, i32 0
  call void @_ZNSt6chrono8durationIlSt5ratioILl1ELl1000EEEC2ImvEERKT_(ptr noundef nonnull align 8 dereferenceable(8) %6, ptr noundef nonnull align 8 dereferenceable(8) %5)
  %12 = call noundef zeroext i1 @_ZNK8WasmEdge5AsyncIN5cxx208expectedISt6vectorISt4pairINS_7VariantIJjimlfdonDv2_mDv2_lDv4_jDv4_iDv8_tDv8_sDv16_hDv16_aDv4_fDv2_dNS_10RefVariantENS_10StrVariantEEEENS_7ValTypeEESaISK_EENS_7ErrCodeEEEE7waitForIlSt5ratioILl1ELl1000EEEEbRKNSt6chrono8durationIT_T0_EE(ptr noundef nonnull align 8 dereferenceable(56) %11, ptr noundef nonnull align 8 dereferenceable(8) %6)
  store i1 %12, ptr %3, align 1
  br label %14

13:                                               ; preds = %2
  store i1 false, ptr %3, align 1
  br label %14

14:                                               ; preds = %13, %9
  %15 = load i1, ptr %3, align 1
  ret i1 %15
}