; Function Attrs: mustprogress uwtable
define noundef zeroext i1 @WasmEdge_AsyncWaitFor(ptr noundef %0, i64 noundef %1) local_unnamed_addr #1 {
  %3 = alloca %"class.std::chrono::duration.622", align 8
  %.not = icmp eq ptr %0, null
  br i1 %.not, label %7, label %4

4:                                                ; preds = %2
  store i64 %1, ptr %3, align 8
  %5 = call noundef i32 @_ZNKSt14__basic_futureIN5cxx208expectedISt6vectorISt4pairIN8WasmEdge7VariantIJjimlfdonDv2_mDv2_lDv4_jDv4_iDv8_tDv8_sDv16_hDv16_aDv4_fDv2_dNS4_10RefVariantENS4_10StrVariantEEEENS4_7ValTypeEESaISK_EENS4_7ErrCodeEEEE8wait_forIlSt5ratioILl1ELl1000EEEESt13future_statusRKNSt6chrono8durationIT_T0_EE(ptr noundef nonnull align 8 dereferenceable(16) %0, ptr noundef nonnull align 8 dereferenceable(8) %3)
  %6 = icmp eq i32 %5, 0
  br label %7

7:                                                ; preds = %2, %4
  %.0 = phi i1 [ %6, %4 ], [ false, %2 ]
  ret i1 %.0
}